target datalayout = "e-m:e-p270:32:32-p271:32:32-p272:64:64-i64:64-i128:128-f80:128-n8:16:32:64-S128"
target triple = "x86_64-pc-linux-gnu"

@.str.378 = private unnamed_addr constant [5 x i8] c"y#|z\00", align 1

; Function Attrs: nounwind uwtable
define internal ptr @unicode_decodelatin1(ptr noundef %0, ptr noundef %1) #0 {
  %3 = alloca ptr, align 8
  %4 = alloca ptr, align 8
  %5 = alloca ptr, align 8
  %6 = alloca ptr, align 8
  %7 = alloca i64, align 8
  %8 = alloca ptr, align 8
  %9 = alloca i32, align 4
  store ptr %0, ptr %4, align 8, !tbaa !3
  store ptr %1, ptr %5, align 8, !tbaa !3
  call void @llvm.lifetime.start.p0(i64 8, ptr %6) #7
  call void @llvm.lifetime.start.p0(i64 8, ptr %7) #7
  call void @llvm.lifetime.start.p0(i64 8, ptr %8) #7
  store ptr null, ptr %8, align 8, !tbaa !8
  %10 = load ptr, ptr %5, align 8, !tbaa !3
  %11 = call i32 (ptr, ptr, ...) @PyArg_ParseTuple(ptr noundef %10, ptr noundef @.str.378, ptr noundef %6, ptr noundef %7, ptr noundef %8)
  %12 = icmp ne i32 %11, 0
  br i1 %12, label %14, label %13

13:                                               ; preds = %2
  store ptr null, ptr %3, align 8
  store i32 1, ptr %9, align 4
  br label %19

14:                                               ; preds = %2
  %15 = load ptr, ptr %6, align 8, !tbaa !8
  %16 = load i64, ptr %7, align 8, !tbaa !12
  %17 = load ptr, ptr %8, align 8, !tbaa !8
  %18 = call ptr @PyUnicode_DecodeLatin1(ptr noundef %15, i64 noundef %16, ptr noundef %17)
  store ptr %18, ptr %3, align 8
  store i32 1, ptr %9, align 4
  br label %19

19:                                               ; preds = %14, %13
  call void @llvm.lifetime.end.p0(i64 8, ptr %8) #7
  call void @llvm.lifetime.end.p0(i64 8, ptr %7) #7
  call void @llvm.lifetime.end.p0(i64 8, ptr %6) #7
  %20 = load ptr, ptr %3, align 8
  ret ptr %20
}